; Function Attrs: nounwind uwtable
define internal range(i32 0, 2) i32 @test_default_cipherlist_implicit() #0 {
  %1 = tail call fastcc ptr @set_up(ptr noundef nonnull @.str)
  %2 = icmp eq ptr %1, null
  br i1 %2, label %15, label %3

3:                                                ; preds = %0
  %4 = getelementptr inbounds nuw i8, ptr %1, i64 8
  %5 = load ptr, ptr %4, align 8, !tbaa !4
  %6 = tail call fastcc i32 @test_default_cipherlist(ptr noundef %5)
  %.not.i = icmp eq i32 %6, 0
  br i1 %.not.i, label %tear_down.exit, label %7

7:                                                ; preds = %3
  %8 = getelementptr inbounds nuw i8, ptr %1, i64 16
  %9 = load ptr, ptr %8, align 8, !tbaa !11
  %10 = tail call fastcc i32 @test_default_cipherlist(ptr noundef %9)
  br label %tear_down.exit

tear_down.exit:                                   ; preds = %3, %7
  %11 = phi i32 [ 0, %3 ], [ %10, %7 ]
  %12 = load ptr, ptr %4, align 8, !tbaa !4
  tail call void @SSL_CTX_free(ptr noundef %12) #3
  %13 = getelementptr inbounds nuw i8, ptr %1, i64 16
  %14 = load ptr, ptr %13, align 8, !tbaa !11
  tail call void @SSL_CTX_free(ptr noundef %14) #3
  tail call void @llvm.memset.p0.i64(ptr noundef nonnull align 8 dereferenceable(16) %4, i8 0, i64 16, i1 false)
  tail call void @CRYPTO_free(ptr noundef nonnull %1, ptr noundef nonnull @.str.4, i32 noundef 37) #3
  br label %15

15:                                               ; preds = %0, %tear_down.exit
  %.05 = phi i32 [ %11, %tear_down.exit ], [ 0, %0 ]
  ret i32 %.05
}